target datalayout = "e-m:e-p270:32:32-p271:32:32-p272:64:64-i64:64-i128:128-f80:128-n8:16:32:64-S128"
target triple = "x86_64-pc-linux-gnu"

%struct.topo_info = type { i16, i32, ptr, ptr, ptr }

@.str.15 = private unnamed_addr constant [36 x i8] c"SwitchName=%s Level=%u LinkSpeed=%u\00", align 1
@.str.16 = private unnamed_addr constant [10 x i8] c" Nodes=%s\00", align 1
@.str.17 = private unnamed_addr constant [13 x i8] c" Switches=%s\00", align 1
@.str.18 = private unnamed_addr constant [15 x i8] c"SLURM_TOPO_LEN\00", align 1
@.str.19 = private unnamed_addr constant [6 x i8] c"%.*s\0A\00", align 1
@.str.20 = private unnamed_addr constant [4 x i8] c"%s\0A\00", align 1

; Function Attrs: inlinehint nounwind willreturn memory(read) uwtable
define available_externally i32 @atoi(ptr noundef nonnull %0) #9 {
  %2 = alloca ptr, align 8
  store ptr %0, ptr %2, align 8
  %3 = load ptr, ptr %2, align 8
  %4 = call i64 @strtol(ptr noundef %3, ptr noundef null, i32 noundef 10) #10
  %5 = trunc i64 %4 to i32
  ret i32 %5
}

; Function Attrs: nounwind uwtable
define dso_local void @_print_topo_record(ptr noundef %0, ptr noundef %1) #0 {
  %3 = alloca ptr, align 8
  %4 = alloca ptr, align 8
  %5 = alloca ptr, align 8
  %6 = alloca ptr, align 8
  %7 = alloca ptr, align 8
  store ptr %0, ptr %3, align 8
  store ptr %1, ptr %4, align 8
  call void @llvm.lifetime.start.p0(i64 8, ptr %5) #10
  call void @llvm.lifetime.start.p0(i64 8, ptr %6) #10
  store ptr null, ptr %6, align 8
  call void @llvm.lifetime.start.p0(i64 8, ptr %7) #10
  store ptr null, ptr %7, align 8
  %8 = load ptr, ptr %3, align 8
  %9 = getelementptr inbounds nuw %struct.topo_info, ptr %8, i32 0, i32 2
  %10 = load ptr, ptr %9, align 8
  %11 = load ptr, ptr %3, align 8
  %12 = getelementptr inbounds nuw %struct.topo_info, ptr %11, i32 0, i32 0
  %13 = load i16, ptr %12, align 8
  %14 = zext i16 %13 to i32
  %15 = load ptr, ptr %3, align 8
  %16 = getelementptr inbounds nuw %struct.topo_info, ptr %15, i32 0, i32 1
  %17 = load i32, ptr %16, align 4
  call void (ptr, ptr, ptr, ...) @slurm_xstrfmtcatat(ptr noundef %6, ptr noundef %7, ptr noundef @.str.15, ptr noundef %10, i32 noundef %14, i32 noundef %17)
  %18 = load ptr, ptr %3, align 8
  %19 = getelementptr inbounds nuw %struct.topo_info, ptr %18, i32 0, i32 3
  %20 = load ptr, ptr %19, align 8
  %21 = icmp ne ptr %20, null
  br i1 %21, label %22, label %26

22:                                               ; preds = %2
  %23 = load ptr, ptr %3, align 8
  %24 = getelementptr inbounds nuw %struct.topo_info, ptr %23, i32 0, i32 3
  %25 = load ptr, ptr %24, align 8
  call void (ptr, ptr, ptr, ...) @slurm_xstrfmtcatat(ptr noundef %6, ptr noundef %7, ptr noundef @.str.16, ptr noundef %25)
  br label %26

26:                                               ; preds = %22, %2
  %27 = load ptr, ptr %3, align 8
  %28 = getelementptr inbounds nuw %struct.topo_info, ptr %27, i32 0, i32 4
  %29 = load ptr, ptr %28, align 8
  %30 = icmp ne ptr %29, null
  br i1 %30, label %31, label %35

31:                                               ; preds = %26
  %32 = load ptr, ptr %3, align 8
  %33 = getelementptr inbounds nuw %struct.topo_info, ptr %32, i32 0, i32 4
  %34 = load ptr, ptr %33, align 8
  call void (ptr, ptr, ptr, ...) @slurm_xstrfmtcatat(ptr noundef %6, ptr noundef %7, ptr noundef @.str.17, ptr noundef %34)
  br label %35

35:                                               ; preds = %31, %26
  %36 = call ptr @getenv(ptr noundef @.str.18) #10
  store ptr %36, ptr %5, align 8
  %37 = icmp ne ptr %36, null
  br i1 %37, label %38, label %43

38:                                               ; preds = %35
  %39 = load ptr, ptr %4, align 8
  %40 = load ptr, ptr %5, align 8
  %41 = call i32 @atoi(ptr noundef %40) #13
  %42 = load ptr, ptr %6, align 8
  call void (ptr, ptr, ...) @slurm_xstrfmtcat(ptr noundef %39, ptr noundef @.str.19, i32 noundef %41, ptr noundef %42)
  br label %46

43:                                               ; preds = %35
  %44 = load ptr, ptr %4, align 8
  %45 = load ptr, ptr %6, align 8
  call void (ptr, ptr, ...) @slurm_xstrfmtcat(ptr noundef %44, ptr noundef @.str.20, ptr noundef %45)
  br label %46

46:                                               ; preds = %43, %38
  call void @slurm_xfree(ptr noundef %6)
  call void @llvm.lifetime.end.p0(i64 8, ptr %7) #10
  call void @llvm.lifetime.end.p0(i64 8, ptr %6) #10
  call void @llvm.lifetime.end.p0(i64 8, ptr %5) #10
  ret void
}