; Function Attrs: nounwind uwtable
define dso_local void @_print_topo_record(ptr noundef readonly captures(none) %0, ptr noundef %1) local_unnamed_addr #0 {
  %3 = alloca ptr, align 8
  %4 = alloca ptr, align 8
  call void @llvm.lifetime.start.p0(i64 8, ptr nonnull %3) #13
  store ptr null, ptr %3, align 8
  call void @llvm.lifetime.start.p0(i64 8, ptr nonnull %4) #13
  store ptr null, ptr %4, align 8
  %5 = getelementptr inbounds nuw i8, ptr %0, i64 8
  %6 = load ptr, ptr %5, align 8
  %7 = load i16, ptr %0, align 8
  %8 = zext i16 %7 to i32
  %9 = getelementptr inbounds nuw i8, ptr %0, i64 4
  %10 = load i32, ptr %9, align 4
  call void (ptr, ptr, ptr, ...) @slurm_xstrfmtcatat(ptr noundef nonnull %3, ptr noundef nonnull %4, ptr noundef nonnull @.str.15, ptr noundef %6, i32 noundef %8, i32 noundef %10) #13
  %11 = getelementptr inbounds nuw i8, ptr %0, i64 16
  %12 = load ptr, ptr %11, align 8
  %.not = icmp eq ptr %12, null
  br i1 %.not, label %14, label %13

13:                                               ; preds = %2
  call void (ptr, ptr, ptr, ...) @slurm_xstrfmtcatat(ptr noundef nonnull %3, ptr noundef nonnull %4, ptr noundef nonnull @.str.16, ptr noundef nonnull %12) #13
  br label %14

14:                                               ; preds = %13, %2
  %15 = getelementptr inbounds nuw i8, ptr %0, i64 24
  %16 = load ptr, ptr %15, align 8
  %.not12 = icmp eq ptr %16, null
  br i1 %.not12, label %18, label %17

17:                                               ; preds = %14
  call void (ptr, ptr, ptr, ...) @slurm_xstrfmtcatat(ptr noundef nonnull %3, ptr noundef nonnull %4, ptr noundef nonnull @.str.17, ptr noundef nonnull %16) #13
  br label %18

18:                                               ; preds = %17, %14
  %19 = call ptr @getenv(ptr noundef nonnull @.str.18) #13
  %.not13 = icmp eq ptr %19, null
  br i1 %.not13, label %24, label %20

20:                                               ; preds = %18
  %21 = call i64 @strtol(ptr noundef nonnull captures(none) %19, ptr noundef null, i32 noundef 10) #13
  %22 = trunc i64 %21 to i32
  %23 = load ptr, ptr %3, align 8
  call void (ptr, ptr, ...) @slurm_xstrfmtcat(ptr noundef %1, ptr noundef nonnull @.str.19, i32 noundef %22, ptr noundef %23) #13
  br label %26

24:                                               ; preds = %18
  %25 = load ptr, ptr %3, align 8
  call void (ptr, ptr, ...) @slurm_xstrfmtcat(ptr noundef %1, ptr noundef nonnull @.str.20, ptr noundef %25) #13
  br label %26

26:                                               ; preds = %24, %20
  call void @slurm_xfree(ptr noundef nonnull %3) #13
  call void @llvm.lifetime.end.p0(i64 8, ptr nonnull %4) #13
  call void @llvm.lifetime.end.p0(i64 8, ptr nonnull %3) #13
  ret void
}